; Function Attrs: mustprogress nofree nounwind willreturn memory(argmem: read) uwtable
define noundef range(i32 0, -2147483648) i32 @_ZNK6icu_7717CharsetRecog_202210match_2022EPKhiPA5_S1_i(ptr noundef nonnull readnone align 8 captures(none) dereferenceable(8) %0, ptr noundef readonly captures(none) %1, i32 noundef %2, ptr noundef readonly captures(none) %3, i32 noundef %4) local_unnamed_addr #0 align 2 {
  %6 = icmp sgt i32 %2, 0
  %7 = icmp sgt i32 %4, 0
  %or.cond = and i1 %6, %7
  br i1 %or.cond, label %.lr.ph83.split.us.preheader, label %._crit_edge84.thread

.lr.ph83.split.us.preheader:                      ; preds = %5
  %wide.trip.count104 = zext nneg i32 %4 to i64
  br label %.lr.ph83.split.us

.lr.ph83.split.us:                                ; preds = %.lr.ph83.split.us.preheader, %23
  %.04580.us = phi i32 [ %24, %23 ], [ 0, %.lr.ph83.split.us.preheader ]
  %.04779.us = phi i32 [ %.148.us, %23 ], [ 0, %.lr.ph83.split.us.preheader ]
  %.04978.us = phi i32 [ %.251.us, %23 ], [ 0, %.lr.ph83.split.us.preheader ]
  %.05277.us = phi i32 [ %.456.us, %23 ], [ 0, %.lr.ph83.split.us.preheader ]
  %8 = sext i32 %.04580.us to i64
  %9 = getelementptr inbounds i8, ptr %1, i64 %8
  %10 = load i8, ptr %9, align 1, !tbaa !3
  %11 = icmp eq i8 %10, 27
  br i1 %11, label %.preheader72.us, label %12

12:                                               ; preds = %._crit_edge.us, %.lr.ph83.split.us
  %.150.us = phi i32 [ %31, %._crit_edge.us ], [ %.04978.us, %.lr.ph83.split.us ]
  %13 = and i8 %10, -2
  %switch66.us = icmp eq i8 %13, 14
  %14 = zext i1 %switch66.us to i32
  %spec.select.us = add nsw i32 %.04779.us, %14
  br label %23

15:                                               ; preds = %.preheader72.us, %.loopexit.us
  %indvars.iv101 = phi i64 [ 0, %.preheader72.us ], [ %indvars.iv.next102, %.loopexit.us ]
  %16 = getelementptr inbounds nuw [5 x i8], ptr %3, i64 %indvars.iv101
  %17 = tail call i64 @strlen(ptr noundef nonnull dereferenceable(1) %16) #10
  %18 = trunc i64 %17 to i32
  %.not.us = icmp slt i32 %30, %18
  br i1 %.not.us, label %.loopexit.us, label %.preheader.us

19:                                               ; preds = %.lr.ph.us
  %indvars.iv.next97 = add nuw nsw i64 %indvars.iv96, 1
  %exitcond100.not = icmp eq i64 %indvars.iv.next97, %wide.trip.count99
  br i1 %exitcond100.not, label %.thread.us, label %.lr.ph.us, !llvm.loop !6

.thread.us:                                       ; preds = %.preheader.us, %19
  %20 = add nsw i32 %.05277.us, 1
  %21 = add nsw i32 %.04580.us, -1
  %22 = add i32 %21, %18
  br label %23

23:                                               ; preds = %.thread.us, %12
  %.456.us = phi i32 [ %.05277.us, %12 ], [ %20, %.thread.us ]
  %.251.us = phi i32 [ %.150.us, %12 ], [ %.04978.us, %.thread.us ]
  %.148.us = phi i32 [ %spec.select.us, %12 ], [ %.04779.us, %.thread.us ]
  %.4.us = phi i32 [ %.04580.us, %12 ], [ %22, %.thread.us ]
  %24 = add nsw i32 %.4.us, 1
  %25 = icmp slt i32 %24, %2
  br i1 %25, label %.lr.ph83.split.us, label %._crit_edge84, !llvm.loop !8

.lr.ph.us:                                        ; preds = %.lr.ph.us.preheader, %19
  %indvars.iv96 = phi i64 [ 1, %.lr.ph.us.preheader ], [ %indvars.iv.next97, %19 ]
  %26 = getelementptr inbounds nuw i8, ptr %16, i64 %indvars.iv96
  %27 = load i8, ptr %26, align 1, !tbaa !3
  %gep = getelementptr i8, ptr %invariant.gep, i64 %indvars.iv96
  %28 = load i8, ptr %gep, align 1, !tbaa !3
  %.not65.us = icmp eq i8 %27, %28
  br i1 %.not65.us, label %19, label %.loopexit.us

.loopexit.us:                                     ; preds = %.lr.ph.us, %15
  %indvars.iv.next102 = add nuw nsw i64 %indvars.iv101, 1
  %exitcond105.not = icmp eq i64 %indvars.iv.next102, %wide.trip.count104
  br i1 %exitcond105.not, label %._crit_edge.us, label %15

.preheader.us:                                    ; preds = %15
  %29 = icmp sgt i32 %18, 1
  br i1 %29, label %.lr.ph.us.preheader, label %.thread.us

.lr.ph.us.preheader:                              ; preds = %.preheader.us
  %wide.trip.count99 = and i64 %17, 2147483647
  br label %.lr.ph.us

.preheader72.us:                                  ; preds = %.lr.ph83.split.us
  %30 = sub nsw i32 %2, %.04580.us
  %invariant.gep = getelementptr i8, ptr %1, i64 %8
  br label %15

._crit_edge.us:                                   ; preds = %.loopexit.us
  %31 = add nsw i32 %.04978.us, 1
  br label %12

._crit_edge84:                                    ; preds = %23
  %32 = icmp eq i32 %.456.us, 0
  br i1 %32, label %._crit_edge84.thread, label %33

33:                                               ; preds = %._crit_edge84
  %reass.add = sub i32 %.456.us, %.251.us
  %reass.mul = mul i32 %reass.add, 100
  %34 = add nsw i32 %.251.us, %.456.us
  %35 = sdiv i32 %reass.mul, %34
  %36 = add nsw i32 %.148.us, %.456.us
  %37 = icmp slt i32 %36, 5
  %38 = sub nsw i32 5, %36
  %.neg64 = mul i32 %38, -10
  %39 = select i1 %37, i32 %.neg64, i32 0
  %.046 = add i32 %35, %39
  %spec.store.select = tail call i32 @llvm.smax.i32(i32 %.046, i32 0)
  br label %._crit_edge84.thread

._crit_edge84.thread:                             ; preds = %5, %._crit_edge84, %33
  %.044 = phi i32 [ %spec.store.select, %33 ], [ 0, %._crit_edge84 ], [ 0, %5 ]
  ret i32 %.044
}